target datalayout = "e-m:e-p270:32:32-p271:32:32-p272:64:64-i64:64-i128:128-f80:128-n8:16:32:64-S128"
target triple = "x86_64-pc-linux-gnu"

%struct.pcre2_memctl = type { ptr, ptr, ptr }
%struct.pcre2_real_convert_context_8 = type { %struct.pcre2_memctl, i32, i32 }

; Function Attrs: nounwind uwtable
define dso_local i32 @php_pcre2_set_glob_separator(ptr noundef %0, i32 noundef %1) #0 {
  %3 = alloca i32, align 4
  %4 = alloca ptr, align 8
  %5 = alloca i32, align 4
  store ptr %0, ptr %4, align 8, !tbaa !35
  store i32 %1, ptr %5, align 4, !tbaa !30
  %6 = load i32, ptr %5, align 4, !tbaa !30
  %7 = icmp ne i32 %6, 47
  br i1 %7, label %8, label %15

8:                                                ; preds = %2
  %9 = load i32, ptr %5, align 4, !tbaa !30
  %10 = icmp ne i32 %9, 92
  br i1 %10, label %11, label %15

11:                                               ; preds = %8
  %12 = load i32, ptr %5, align 4, !tbaa !30
  %13 = icmp ne i32 %12, 46
  br i1 %13, label %14, label %15

14:                                               ; preds = %11
  store i32 -29, ptr %3, align 4
  br label %19

15:                                               ; preds = %11, %8, %2
  %16 = load i32, ptr %5, align 4, !tbaa !30
  %17 = load ptr, ptr %4, align 8, !tbaa !35
  %18 = getelementptr inbounds nuw %struct.pcre2_real_convert_context_8, ptr %17, i32 0, i32 1
  store i32 %16, ptr %18, align 8, !tbaa !71
  store i32 0, ptr %3, align 4
  br label %19

19:                                               ; preds = %15, %14
  %20 = load i32, ptr %3, align 4
  ret i32 %20
}