; Function Attrs: mustprogress nofree norecurse nosync nounwind willreturn memory(argmem: write) uwtable
define dso_local range(i32 -29, 1) i32 @php_pcre2_set_glob_separator(ptr noundef writeonly captures(none) %0, i32 noundef %1) local_unnamed_addr #5 {
  switch i32 %1, label %5 [
    i32 92, label %3
    i32 47, label %3
    i32 46, label %3
  ]

3:                                                ; preds = %2, %2, %2
  %4 = getelementptr inbounds nuw i8, ptr %0, i64 24
  store i32 %1, ptr %4, align 8, !tbaa !61
  br label %5

5:                                                ; preds = %2, %3
  %.0 = phi i32 [ 0, %3 ], [ -29, %2 ]
  ret i32 %.0
}